target datalayout = "e-m:e-p270:32:32-p271:32:32-p272:64:64-i64:64-i128:128-f80:128-n8:16:32:64-S128"
target triple = "x86_64-pc-linux-gnu"

%struct.key2any_ctx_st = type { ptr, i32, i32, ptr, %struct.ossl_passphrase_data_st }
%struct.ossl_passphrase_data_st = type { i32, %union.anon, i8, ptr, i64 }
%union.anon = type { %struct.anon }
%struct.anon = type { ptr, i64 }

@.str = private unnamed_addr constant [68 x i8] c"../openssl/providers/implementations/encode_decode/encode_key2any.c\00", align 1

; Function Attrs: nounwind uwtable
define internal void @key2any_freectx(ptr noundef %0) #0 {
  %2 = alloca ptr, align 8
  %3 = alloca ptr, align 8
  store ptr %0, ptr %2, align 8, !tbaa !3
  call void @llvm.lifetime.start.p0(i64 8, ptr %3) #4
  %4 = load ptr, ptr %2, align 8, !tbaa !3
  store ptr %4, ptr %3, align 8, !tbaa !7
  %5 = load ptr, ptr %3, align 8, !tbaa !7
  %6 = getelementptr inbounds nuw %struct.key2any_ctx_st, ptr %5, i32 0, i32 4
  call void @ossl_pw_clear_passphrase_data(ptr noundef %6)
  %7 = load ptr, ptr %3, align 8, !tbaa !7
  %8 = getelementptr inbounds nuw %struct.key2any_ctx_st, ptr %7, i32 0, i32 3
  %9 = load ptr, ptr %8, align 8, !tbaa !18
  call void @EVP_CIPHER_free(ptr noundef %9)
  %10 = load ptr, ptr %3, align 8, !tbaa !7
  call void @CRYPTO_free(ptr noundef %10, ptr noundef @.str, i32 noundef 1046)
  call void @llvm.lifetime.end.p0(i64 8, ptr %3) #4
  ret void
}