; Function Attrs: nounwind uwtable
define internal void @key2any_freectx(ptr noundef %0) #0 {
  %2 = getelementptr inbounds nuw i8, ptr %0, i64 24
  tail call void @ossl_pw_clear_passphrase_data(ptr noundef nonnull %2) #5
  %3 = getelementptr inbounds nuw i8, ptr %0, i64 16
  %4 = load ptr, ptr %3, align 8, !tbaa !15
  tail call void @EVP_CIPHER_free(ptr noundef %4) #5
  tail call void @CRYPTO_free(ptr noundef %0, ptr noundef nonnull @.str, i32 noundef 1046) #5
  ret void
}